target datalayout = "e-m:e-p270:32:32-p271:32:32-p272:64:64-i64:64-i128:128-f80:128-n8:16:32:64-S128"
target triple = "x86_64-pc-linux-gnu"

%struct.lua_State = type { %struct.GCRef, i8, i8, i8, i8, %struct.MRef, %struct.GCRef, ptr, ptr, %struct.MRef, %struct.MRef, %struct.GCRef, %struct.GCRef, ptr, i32 }
%struct.MRef = type { i64 }
%struct.GCRef = type { i64 }
%union.TValue = type { i64 }

@.str.3 = private unnamed_addr constant [23 x i8] c"copy of dead GC object\00", align 1
@.str.8 = private unnamed_addr constant [26 x i8] c"too many nested functions\00", align 1

; Function Attrs: alwaysinline nounwind uwtable
define internal void @checklivetv(ptr noundef %0, ptr noundef %1, ptr noundef %2) #1 {
  %4 = alloca ptr, align 8
  %5 = alloca ptr, align 8
  %6 = alloca ptr, align 8
  store ptr %0, ptr %4, align 8, !tbaa !4
  store ptr %1, ptr %5, align 8, !tbaa !17
  store ptr %2, ptr %6, align 8, !tbaa !25
  ret void
}

; Function Attrs: alwaysinline nounwind uwtable
define internal void @copyTV(ptr noundef %0, ptr noundef %1, ptr noundef %2) #1 {
  %4 = alloca ptr, align 8
  %5 = alloca ptr, align 8
  %6 = alloca ptr, align 8
  store ptr %0, ptr %4, align 8, !tbaa !4
  store ptr %1, ptr %5, align 8, !tbaa !17
  store ptr %2, ptr %6, align 8, !tbaa !17
  %7 = load ptr, ptr %5, align 8, !tbaa !17
  %8 = load ptr, ptr %6, align 8, !tbaa !17
  call void @llvm.memcpy.p0.p0.i64(ptr align 8 %7, ptr align 8 %8, i64 8, i1 false), !tbaa.struct !18
  %9 = load ptr, ptr %4, align 8, !tbaa !4
  %10 = load ptr, ptr %5, align 8, !tbaa !17
  call void @checklivetv(ptr noundef %9, ptr noundef %10, ptr noundef @.str.3)
  ret void
}

; Function Attrs: nounwind uwtable
define internal ptr @reader_func(ptr noundef %0, ptr noundef %1, ptr noundef %2) #3 {
  %4 = alloca ptr, align 8
  %5 = alloca ptr, align 8
  %6 = alloca ptr, align 8
  %7 = alloca ptr, align 8
  store ptr %0, ptr %5, align 8, !tbaa !4
  store ptr %1, ptr %6, align 8, !tbaa !84
  store ptr %2, ptr %7, align 8, !tbaa !85
  %8 = load ptr, ptr %5, align 8, !tbaa !4
  call void @luaL_checkstack(ptr noundef %8, i32 noundef 2, ptr noundef @.str.8)
  %9 = load ptr, ptr %5, align 8, !tbaa !4
  %10 = load ptr, ptr %5, align 8, !tbaa !4
  %11 = getelementptr inbounds nuw %struct.lua_State, ptr %10, i32 0, i32 8
  %12 = load ptr, ptr %11, align 8, !tbaa !9
  %13 = getelementptr inbounds nuw %union.TValue, ptr %12, i32 1
  store ptr %13, ptr %11, align 8, !tbaa !9
  %14 = load ptr, ptr %5, align 8, !tbaa !4
  %15 = getelementptr inbounds nuw %struct.lua_State, ptr %14, i32 0, i32 7
  %16 = load ptr, ptr %15, align 8, !tbaa !32
  call void @copyTV(ptr noundef %9, ptr noundef %12, ptr noundef %16)
  %17 = load ptr, ptr %5, align 8, !tbaa !4
  call void @lua_call(ptr noundef %17, i32 noundef 0, i32 noundef 1)
  %18 = load ptr, ptr %5, align 8, !tbaa !4
  %19 = getelementptr inbounds nuw %struct.lua_State, ptr %18, i32 0, i32 8
  %20 = load ptr, ptr %19, align 8, !tbaa !9
  %21 = getelementptr inbounds %union.TValue, ptr %20, i32 -1
  store ptr %21, ptr %19, align 8, !tbaa !9
  %22 = load ptr, ptr %5, align 8, !tbaa !4
  %23 = getelementptr inbounds nuw %struct.lua_State, ptr %22, i32 0, i32 8
  %24 = load ptr, ptr %23, align 8, !tbaa !9
  %25 = load i64, ptr %24, align 8, !tbaa !16
  %26 = icmp eq i64 %25, -1
  br i1 %26, label %27, label %29

27:                                               ; preds = %3
  %28 = load ptr, ptr %7, align 8, !tbaa !85
  store i64 0, ptr %28, align 8, !tbaa !48
  store ptr null, ptr %4, align 8
  br label %59

29:                                               ; preds = %3
  %30 = load ptr, ptr %5, align 8, !tbaa !4
  %31 = getelementptr inbounds nuw %struct.lua_State, ptr %30, i32 0, i32 8
  %32 = load ptr, ptr %31, align 8, !tbaa !9
  %33 = load i64, ptr %32, align 8, !tbaa !16
  %34 = ashr i64 %33, 47
  %35 = trunc i64 %34 to i32
  %36 = icmp eq i32 %35, -5
  br i1 %36, label %45, label %37

37:                                               ; preds = %29
  %38 = load ptr, ptr %5, align 8, !tbaa !4
  %39 = getelementptr inbounds nuw %struct.lua_State, ptr %38, i32 0, i32 8
  %40 = load ptr, ptr %39, align 8, !tbaa !9
  %41 = load i64, ptr %40, align 8, !tbaa !16
  %42 = ashr i64 %41, 47
  %43 = trunc i64 %42 to i32
  %44 = icmp ule i32 %43, -14
  br i1 %44, label %45, label %57

45:                                               ; preds = %37, %29
  %46 = load ptr, ptr %5, align 8, !tbaa !4
  %47 = load ptr, ptr %5, align 8, !tbaa !4
  %48 = getelementptr inbounds nuw %struct.lua_State, ptr %47, i32 0, i32 7
  %49 = load ptr, ptr %48, align 8, !tbaa !32
  %50 = getelementptr inbounds %union.TValue, ptr %49, i64 4
  %51 = load ptr, ptr %5, align 8, !tbaa !4
  %52 = getelementptr inbounds nuw %struct.lua_State, ptr %51, i32 0, i32 8
  %53 = load ptr, ptr %52, align 8, !tbaa !9
  call void @copyTV(ptr noundef %46, ptr noundef %50, ptr noundef %53)
  %54 = load ptr, ptr %5, align 8, !tbaa !4
  %55 = load ptr, ptr %7, align 8, !tbaa !85
  %56 = call ptr @lua_tolstring(ptr noundef %54, i32 noundef 5, ptr noundef %55)
  store ptr %56, ptr %4, align 8
  br label %59

57:                                               ; preds = %37
  %58 = load ptr, ptr %5, align 8, !tbaa !4
  call void @lj_err_caller(ptr noundef %58, i32 noundef 1014) #10
  unreachable

59:                                               ; preds = %45, %27
  %60 = load ptr, ptr %4, align 8
  ret ptr %60
}