; Function Attrs: nounwind uwtable
define internal ptr @reader_func(ptr noundef %0, ptr readnone captures(none) %1, ptr noundef %2) #2 {
  tail call void @luaL_checkstack(ptr noundef %0, i32 noundef 2, ptr noundef nonnull @.str.8) #11
  %4 = getelementptr inbounds nuw i8, ptr %0, i64 40
  %5 = load ptr, ptr %4, align 8, !tbaa !4
  %6 = getelementptr inbounds nuw i8, ptr %5, i64 8
  store ptr %6, ptr %4, align 8, !tbaa !4
  %7 = getelementptr inbounds nuw i8, ptr %0, i64 32
  %8 = load ptr, ptr %7, align 8, !tbaa !19
  %9 = load i64, ptr %8, align 8, !tbaa !14
  store i64 %9, ptr %5, align 8, !tbaa !14
  tail call void @lua_call(ptr noundef %0, i32 noundef 0, i32 noundef 1) #11
  %10 = load ptr, ptr %4, align 8, !tbaa !4
  %11 = getelementptr inbounds i8, ptr %10, i64 -8
  store ptr %11, ptr %4, align 8, !tbaa !4
  %12 = load i64, ptr %11, align 8, !tbaa !14
  %13 = icmp eq i64 %12, -1
  br i1 %13, label %14, label %15

14:                                               ; preds = %3
  store i64 0, ptr %2, align 8, !tbaa !63
  br label %24

15:                                               ; preds = %3
  %16 = ashr i64 %12, 47
  %17 = icmp eq i64 %16, -5
  %18 = icmp ult i64 %16, -13
  %or.cond = or i1 %17, %18
  br i1 %or.cond, label %19, label %23

19:                                               ; preds = %15
  %20 = load ptr, ptr %7, align 8, !tbaa !19
  %21 = getelementptr inbounds nuw i8, ptr %20, i64 32
  store i64 %12, ptr %21, align 8, !tbaa !14
  %22 = tail call ptr @lua_tolstring(ptr noundef nonnull %0, i32 noundef 5, ptr noundef %2) #11
  br label %24

23:                                               ; preds = %15
  tail call void @lj_err_caller(ptr noundef nonnull %0, i32 noundef 1014) #10
  unreachable

24:                                               ; preds = %19, %14
  %.0 = phi ptr [ null, %14 ], [ %22, %19 ]
  ret ptr %.0
}